target datalayout = "e-m:e-p270:32:32-p271:32:32-p272:64:64-i64:64-i128:128-f80:128-n8:16:32:64-S128"
target triple = "x86_64-pc-linux-gnu"

%struct.jv = type { i8, i8, i16, i32, %union.anon }
%union.anon = type { ptr }

@.str.8 = private unnamed_addr constant [23 x i8] c"%s (%s) and %s (%s) %s\00", align 1
@.str.171 = private unnamed_addr constant [46 x i8] c"cannot be sorted, as they are not both arrays\00", align 1

; Function Attrs: nounwind uwtable
define internal { i64, ptr } @type_error2(i64 %0, ptr %1, i64 %2, ptr %3, ptr noundef %4) #0 {
  %6 = alloca %struct.jv, align 8
  %7 = alloca %struct.jv, align 8
  %8 = alloca %struct.jv, align 8
  %9 = alloca ptr, align 8
  %10 = alloca [15 x i8], align 1
  %11 = alloca [15 x i8], align 1
  %12 = alloca ptr, align 8
  %13 = alloca ptr, align 8
  %14 = alloca %struct.jv, align 8
  %15 = getelementptr inbounds nuw { i64, ptr }, ptr %7, i32 0, i32 0
  store i64 %0, ptr %15, align 8
  %16 = getelementptr inbounds nuw { i64, ptr }, ptr %7, i32 0, i32 1
  store ptr %1, ptr %16, align 8
  %17 = getelementptr inbounds nuw { i64, ptr }, ptr %8, i32 0, i32 0
  store i64 %2, ptr %17, align 8
  %18 = getelementptr inbounds nuw { i64, ptr }, ptr %8, i32 0, i32 1
  store ptr %3, ptr %18, align 8
  store ptr %4, ptr %9, align 8, !tbaa !12
  call void @llvm.lifetime.start.p0(i64 15, ptr %10) #10
  call void @llvm.lifetime.start.p0(i64 15, ptr %11) #10
  call void @llvm.lifetime.start.p0(i64 8, ptr %12) #10
  %19 = getelementptr inbounds nuw { i64, ptr }, ptr %7, i32 0, i32 0
  %20 = load i64, ptr %19, align 8
  %21 = getelementptr inbounds nuw { i64, ptr }, ptr %7, i32 0, i32 1
  %22 = load ptr, ptr %21, align 8
  %23 = call i32 @jv_get_kind(i64 %20, ptr %22)
  %24 = call ptr @jv_kind_name(i32 noundef %23)
  store ptr %24, ptr %12, align 8, !tbaa !12
  call void @llvm.lifetime.start.p0(i64 8, ptr %13) #10
  %25 = getelementptr inbounds nuw { i64, ptr }, ptr %8, i32 0, i32 0
  %26 = load i64, ptr %25, align 8
  %27 = getelementptr inbounds nuw { i64, ptr }, ptr %8, i32 0, i32 1
  %28 = load ptr, ptr %27, align 8
  %29 = call i32 @jv_get_kind(i64 %26, ptr %28)
  %30 = call ptr @jv_kind_name(i32 noundef %29)
  store ptr %30, ptr %13, align 8, !tbaa !12
  %31 = load ptr, ptr %12, align 8, !tbaa !12
  %32 = getelementptr inbounds [15 x i8], ptr %10, i64 0, i64 0
  %33 = getelementptr inbounds nuw { i64, ptr }, ptr %7, i32 0, i32 0
  %34 = load i64, ptr %33, align 8
  %35 = getelementptr inbounds nuw { i64, ptr }, ptr %7, i32 0, i32 1
  %36 = load ptr, ptr %35, align 8
  %37 = call ptr @jv_dump_string_trunc(i64 %34, ptr %36, ptr noundef %32, i64 noundef 15)
  %38 = load ptr, ptr %13, align 8, !tbaa !12
  %39 = getelementptr inbounds [15 x i8], ptr %11, i64 0, i64 0
  %40 = getelementptr inbounds nuw { i64, ptr }, ptr %8, i32 0, i32 0
  %41 = load i64, ptr %40, align 8
  %42 = getelementptr inbounds nuw { i64, ptr }, ptr %8, i32 0, i32 1
  %43 = load ptr, ptr %42, align 8
  %44 = call ptr @jv_dump_string_trunc(i64 %41, ptr %43, ptr noundef %39, i64 noundef 15)
  %45 = load ptr, ptr %9, align 8, !tbaa !12
  %46 = call { i64, ptr } (ptr, ...) @jv_string_fmt(ptr noundef @.str.8, ptr noundef %31, ptr noundef %37, ptr noundef %38, ptr noundef %44, ptr noundef %45)
  %47 = getelementptr inbounds nuw { i64, ptr }, ptr %14, i32 0, i32 0
  %48 = extractvalue { i64, ptr } %46, 0
  store i64 %48, ptr %47, align 8
  %49 = getelementptr inbounds nuw { i64, ptr }, ptr %14, i32 0, i32 1
  %50 = extractvalue { i64, ptr } %46, 1
  store ptr %50, ptr %49, align 8
  %51 = getelementptr inbounds nuw { i64, ptr }, ptr %14, i32 0, i32 0
  %52 = load i64, ptr %51, align 8
  %53 = getelementptr inbounds nuw { i64, ptr }, ptr %14, i32 0, i32 1
  %54 = load ptr, ptr %53, align 8
  %55 = call { i64, ptr } @jv_invalid_with_msg(i64 %52, ptr %54)
  %56 = getelementptr inbounds nuw { i64, ptr }, ptr %6, i32 0, i32 0
  %57 = extractvalue { i64, ptr } %55, 0
  store i64 %57, ptr %56, align 8
  %58 = getelementptr inbounds nuw { i64, ptr }, ptr %6, i32 0, i32 1
  %59 = extractvalue { i64, ptr } %55, 1
  store ptr %59, ptr %58, align 8
  call void @llvm.lifetime.end.p0(i64 8, ptr %13) #10
  call void @llvm.lifetime.end.p0(i64 8, ptr %12) #10
  call void @llvm.lifetime.end.p0(i64 15, ptr %11) #10
  call void @llvm.lifetime.end.p0(i64 15, ptr %10) #10
  %60 = load { i64, ptr }, ptr %6, align 8
  ret { i64, ptr } %60
}

; Function Attrs: nounwind uwtable
define internal { i64, ptr } @f_group_by_impl(ptr noundef %0, i64 %1, ptr %2, i64 %3, ptr %4) #0 {
  %6 = alloca %struct.jv, align 8
  %7 = alloca %struct.jv, align 8
  %8 = alloca %struct.jv, align 8
  %9 = alloca ptr, align 8
  %10 = alloca %struct.jv, align 8
  %11 = alloca %struct.jv, align 8
  %12 = getelementptr inbounds nuw { i64, ptr }, ptr %7, i32 0, i32 0
  store i64 %1, ptr %12, align 8
  %13 = getelementptr inbounds nuw { i64, ptr }, ptr %7, i32 0, i32 1
  store ptr %2, ptr %13, align 8
  %14 = getelementptr inbounds nuw { i64, ptr }, ptr %8, i32 0, i32 0
  store i64 %3, ptr %14, align 8
  %15 = getelementptr inbounds nuw { i64, ptr }, ptr %8, i32 0, i32 1
  store ptr %4, ptr %15, align 8
  store ptr %0, ptr %9, align 8, !tbaa !25
  %16 = getelementptr inbounds nuw { i64, ptr }, ptr %7, i32 0, i32 0
  %17 = load i64, ptr %16, align 8
  %18 = getelementptr inbounds nuw { i64, ptr }, ptr %7, i32 0, i32 1
  %19 = load ptr, ptr %18, align 8
  %20 = call i32 @jv_get_kind(i64 %17, ptr %19)
  %21 = icmp eq i32 %20, 6
  br i1 %21, label %22, label %73

22:                                               ; preds = %5
  %23 = getelementptr inbounds nuw { i64, ptr }, ptr %8, i32 0, i32 0
  %24 = load i64, ptr %23, align 8
  %25 = getelementptr inbounds nuw { i64, ptr }, ptr %8, i32 0, i32 1
  %26 = load ptr, ptr %25, align 8
  %27 = call i32 @jv_get_kind(i64 %24, ptr %26)
  %28 = icmp eq i32 %27, 6
  br i1 %28, label %29, label %73

29:                                               ; preds = %22
  %30 = getelementptr inbounds nuw { i64, ptr }, ptr %7, i32 0, i32 0
  %31 = load i64, ptr %30, align 8
  %32 = getelementptr inbounds nuw { i64, ptr }, ptr %7, i32 0, i32 1
  %33 = load ptr, ptr %32, align 8
  %34 = call { i64, ptr } @jv_copy(i64 %31, ptr %33)
  %35 = getelementptr inbounds nuw { i64, ptr }, ptr %10, i32 0, i32 0
  %36 = extractvalue { i64, ptr } %34, 0
  store i64 %36, ptr %35, align 8
  %37 = getelementptr inbounds nuw { i64, ptr }, ptr %10, i32 0, i32 1
  %38 = extractvalue { i64, ptr } %34, 1
  store ptr %38, ptr %37, align 8
  %39 = getelementptr inbounds nuw { i64, ptr }, ptr %10, i32 0, i32 0
  %40 = load i64, ptr %39, align 8
  %41 = getelementptr inbounds nuw { i64, ptr }, ptr %10, i32 0, i32 1
  %42 = load ptr, ptr %41, align 8
  %43 = call i32 @jv_array_length(i64 %40, ptr %42)
  %44 = getelementptr inbounds nuw { i64, ptr }, ptr %8, i32 0, i32 0
  %45 = load i64, ptr %44, align 8
  %46 = getelementptr inbounds nuw { i64, ptr }, ptr %8, i32 0, i32 1
  %47 = load ptr, ptr %46, align 8
  %48 = call { i64, ptr } @jv_copy(i64 %45, ptr %47)
  %49 = getelementptr inbounds nuw { i64, ptr }, ptr %11, i32 0, i32 0
  %50 = extractvalue { i64, ptr } %48, 0
  store i64 %50, ptr %49, align 8
  %51 = getelementptr inbounds nuw { i64, ptr }, ptr %11, i32 0, i32 1
  %52 = extractvalue { i64, ptr } %48, 1
  store ptr %52, ptr %51, align 8
  %53 = getelementptr inbounds nuw { i64, ptr }, ptr %11, i32 0, i32 0
  %54 = load i64, ptr %53, align 8
  %55 = getelementptr inbounds nuw { i64, ptr }, ptr %11, i32 0, i32 1
  %56 = load ptr, ptr %55, align 8
  %57 = call i32 @jv_array_length(i64 %54, ptr %56)
  %58 = icmp eq i32 %43, %57
  br i1 %58, label %59, label %73

59:                                               ; preds = %29
  %60 = getelementptr inbounds nuw { i64, ptr }, ptr %7, i32 0, i32 0
  %61 = load i64, ptr %60, align 8
  %62 = getelementptr inbounds nuw { i64, ptr }, ptr %7, i32 0, i32 1
  %63 = load ptr, ptr %62, align 8
  %64 = getelementptr inbounds nuw { i64, ptr }, ptr %8, i32 0, i32 0
  %65 = load i64, ptr %64, align 8
  %66 = getelementptr inbounds nuw { i64, ptr }, ptr %8, i32 0, i32 1
  %67 = load ptr, ptr %66, align 8
  %68 = call { i64, ptr } @jv_group(i64 %61, ptr %63, i64 %65, ptr %67)
  %69 = getelementptr inbounds nuw { i64, ptr }, ptr %6, i32 0, i32 0
  %70 = extractvalue { i64, ptr } %68, 0
  store i64 %70, ptr %69, align 8
  %71 = getelementptr inbounds nuw { i64, ptr }, ptr %6, i32 0, i32 1
  %72 = extractvalue { i64, ptr } %68, 1
  store ptr %72, ptr %71, align 8
  br label %87

73:                                               ; preds = %29, %22, %5
  %74 = getelementptr inbounds nuw { i64, ptr }, ptr %7, i32 0, i32 0
  %75 = load i64, ptr %74, align 8
  %76 = getelementptr inbounds nuw { i64, ptr }, ptr %7, i32 0, i32 1
  %77 = load ptr, ptr %76, align 8
  %78 = getelementptr inbounds nuw { i64, ptr }, ptr %8, i32 0, i32 0
  %79 = load i64, ptr %78, align 8
  %80 = getelementptr inbounds nuw { i64, ptr }, ptr %8, i32 0, i32 1
  %81 = load ptr, ptr %80, align 8
  %82 = call { i64, ptr } @type_error2(i64 %75, ptr %77, i64 %79, ptr %81, ptr noundef @.str.171)
  %83 = getelementptr inbounds nuw { i64, ptr }, ptr %6, i32 0, i32 0
  %84 = extractvalue { i64, ptr } %82, 0
  store i64 %84, ptr %83, align 8
  %85 = getelementptr inbounds nuw { i64, ptr }, ptr %6, i32 0, i32 1
  %86 = extractvalue { i64, ptr } %82, 1
  store ptr %86, ptr %85, align 8
  br label %87

87:                                               ; preds = %73, %59
  %88 = load { i64, ptr }, ptr %6, align 8
  ret { i64, ptr } %88
}